target datalayout = "e-m:e-p270:32:32-p271:32:32-p272:64:64-i64:64-i128:128-f80:128-n8:16:32:64-S128"
target triple = "x86_64-unknown-linux-gnu"

%struct.BdrvDirtyBitmap = type { ptr, ptr, i8, ptr, ptr, i64, i8, i32, i8, i8, i8, i8, %struct.anon }
%struct.anon = type { ptr, ptr }

@.str.1 = private unnamed_addr constant [29 x i8] c"../qemu/block/dirty-bitmap.c\00", align 1
@.str.23 = private unnamed_addr constant [70 x i8] c"QEMU_IS_ALIGNED(limit, bdrv_dirty_bitmap_serialization_align(bitmap))\00", align 1
@__PRETTY_FUNCTION__.bdrv_dirty_bitmap_serialization_coverage = private unnamed_addr constant [80 x i8] c"uint64_t bdrv_dirty_bitmap_serialization_coverage(int, const BdrvDirtyBitmap *)\00", align 1

; Function Attrs: nounwind sspstrong uwtable
define dso_local i64 @bdrv_dirty_bitmap_serialization_align(ptr noundef %bitmap) #0 {
entry:
  %bitmap.addr = alloca ptr, align 8
  store ptr %bitmap, ptr %bitmap.addr, align 8
  %0 = load ptr, ptr %bitmap.addr, align 8
  %bitmap1 = getelementptr inbounds %struct.BdrvDirtyBitmap, ptr %0, i32 0, i32 1
  %1 = load ptr, ptr %bitmap1, align 8
  %call = call i64 @hbitmap_serialization_align(ptr noundef %1)
  ret i64 %call
}

; Function Attrs: nounwind sspstrong uwtable
define dso_local i32 @bdrv_dirty_bitmap_granularity(ptr noundef %bitmap) #0 {
entry:
  %bitmap.addr = alloca ptr, align 8
  store ptr %bitmap, ptr %bitmap.addr, align 8
  %0 = load ptr, ptr %bitmap.addr, align 8
  %bitmap1 = getelementptr inbounds %struct.BdrvDirtyBitmap, ptr %0, i32 0, i32 1
  %1 = load ptr, ptr %bitmap1, align 8
  %call = call i32 @hbitmap_granularity(ptr noundef %1)
  %shl = shl i32 1, %call
  ret i32 %shl
}

; Function Attrs: nounwind sspstrong uwtable
define dso_local i64 @bdrv_dirty_bitmap_serialization_coverage(i32 noundef %serialized_chunk_size, ptr noundef %bitmap) #0 {
entry:
  %serialized_chunk_size.addr = alloca i32, align 4
  %bitmap.addr = alloca ptr, align 8
  %granularity = alloca i64, align 8
  %limit = alloca i64, align 8
  store i32 %serialized_chunk_size, ptr %serialized_chunk_size.addr, align 4
  store ptr %bitmap, ptr %bitmap.addr, align 8
  %0 = load ptr, ptr %bitmap.addr, align 8
  %call = call i32 @bdrv_dirty_bitmap_granularity(ptr noundef %0)
  %conv = zext i32 %call to i64
  store i64 %conv, ptr %granularity, align 8
  %1 = load i64, ptr %granularity, align 8
  %2 = load i32, ptr %serialized_chunk_size.addr, align 4
  %shl = shl i32 %2, 3
  %conv1 = sext i32 %shl to i64
  %mul = mul i64 %1, %conv1
  store i64 %mul, ptr %limit, align 8
  %3 = load i64, ptr %limit, align 8
  %4 = load ptr, ptr %bitmap.addr, align 8
  %call2 = call i64 @bdrv_dirty_bitmap_serialization_align(ptr noundef %4)
  %rem = urem i64 %3, %call2
  %cmp = icmp eq i64 %rem, 0
  br i1 %cmp, label %if.then, label %if.else

if.then:                                          ; preds = %entry
  br label %if.end

if.else:                                          ; preds = %entry
  call void @__assert_fail(ptr noundef @.str.23, ptr noundef @.str.1, i32 noundef 618, ptr noundef @__PRETTY_FUNCTION__.bdrv_dirty_bitmap_serialization_coverage) #11
  unreachable

if.end:                                           ; preds = %if.then
  %5 = load i64, ptr %limit, align 8
  ret i64 %5
}