; Function Attrs: nounwind sspstrong uwtable
define dso_local range(i64 -4611686018427387904, 4611686016279904257) i64 @bdrv_dirty_bitmap_serialization_coverage(i32 noundef %serialized_chunk_size, ptr noundef readonly captures(none) %bitmap) local_unnamed_addr #0 {
entry:
  %bitmap1.i = getelementptr inbounds nuw i8, ptr %bitmap, i64 8
  %0 = load ptr, ptr %bitmap1.i, align 8
  %call.i = tail call i32 @hbitmap_granularity(ptr noundef %0) #14
  %shl = shl i32 %serialized_chunk_size, 3
  %conv1 = sext i32 %shl to i64
  %1 = zext nneg i32 %call.i to i64
  %mul = shl i64 %conv1, %1
  %2 = load ptr, ptr %bitmap1.i, align 8
  %call.i4 = tail call i64 @hbitmap_serialization_align(ptr noundef %2) #14
  %rem = urem i64 %mul, %call.i4
  %cmp = icmp eq i64 %rem, 0
  br i1 %cmp, label %if.end, label %if.else

if.else:                                          ; preds = %entry
  tail call void @__assert_fail(ptr noundef nonnull @.str.23, ptr noundef nonnull @.str.1, i32 noundef 618, ptr noundef nonnull @__PRETTY_FUNCTION__.bdrv_dirty_bitmap_serialization_coverage) #15
  unreachable

if.end:                                           ; preds = %entry
  ret i64 %mul
}